; Function Attrs: mustprogress uwtable
define void @_ZN6icu_7712RegexMatcherC2EP5UTextjR10UErrorCode(ptr noundef nonnull align 8 dereferenceable(336) initializes((0, 24), (56, 60), (64, 131), (136, 170), (176, 192), (264, 312), (313, 314), (316, 320)) %0, ptr noundef %1, i32 noundef %2, ptr noundef nonnull align 4 dereferenceable(4) %3) unnamed_addr #1 align 2 personality ptr @__gxx_personality_v0 {
  %5 = alloca %struct.UParseError, align 4
  store ptr getelementptr inbounds nuw inrange(-16, 496) (i8, ptr @_ZTVN6icu_7712RegexMatcherE, i64 16), ptr %0, align 8, !tbaa !15
  %6 = getelementptr inbounds nuw i8, ptr %0, i64 8
  %7 = getelementptr inbounds nuw i8, ptr %0, i64 56
  store i32 0, ptr %7, align 8, !tbaa !17
  %8 = getelementptr inbounds nuw i8, ptr %0, i64 64
  %9 = getelementptr inbounds nuw i8, ptr %0, i64 129
  tail call void @llvm.memset.p0.i64(ptr noundef nonnull align 8 dereferenceable(16) %6, i8 0, i64 16, i1 false)
  tail call void @llvm.memset.p0.i64(ptr noundef nonnull align 8 dereferenceable(65) %8, i8 0, i64 65, i1 false)
  store i8 1, ptr %9, align 1, !tbaa !28
  %10 = getelementptr inbounds nuw i8, ptr %0, i64 130
  store i8 0, ptr %10, align 2, !tbaa !29
  %11 = getelementptr inbounds nuw i8, ptr %0, i64 136
  %12 = getelementptr inbounds nuw i8, ptr %0, i64 152
  tail call void @llvm.memset.p0.i64(ptr noundef nonnull align 8 dereferenceable(16) %11, i8 0, i64 16, i1 false)
  store i64 -1, ptr %12, align 8, !tbaa !30
  %13 = getelementptr inbounds nuw i8, ptr %0, i64 160
  store i64 0, ptr %13, align 8, !tbaa !31
  %14 = getelementptr inbounds nuw i8, ptr %0, i64 168
  store i8 0, ptr %14, align 8, !tbaa !32
  %15 = getelementptr inbounds nuw i8, ptr %0, i64 169
  store i8 0, ptr %15, align 1, !tbaa !33
  %16 = getelementptr inbounds nuw i8, ptr %0, i64 176
  %17 = getelementptr inbounds nuw i8, ptr %0, i64 264
  store i32 0, ptr %17, align 8, !tbaa !34
  %18 = getelementptr inbounds nuw i8, ptr %0, i64 268
  store i32 0, ptr %18, align 4, !tbaa !35
  %19 = getelementptr inbounds nuw i8, ptr %0, i64 272
  store i32 0, ptr %19, align 8, !tbaa !36
  %20 = getelementptr inbounds nuw i8, ptr %0, i64 276
  tail call void @llvm.memset.p0.i64(ptr noundef nonnull align 8 dereferenceable(16) %16, i8 0, i64 16, i1 false)
  store i32 8000000, ptr %20, align 4, !tbaa !37
  %21 = getelementptr inbounds nuw i8, ptr %0, i64 280
  %22 = getelementptr inbounds nuw i8, ptr %0, i64 313
  store i8 0, ptr %22, align 1, !tbaa !38
  tail call void @llvm.memset.p0.i64(ptr noundef nonnull align 8 dereferenceable(32) %21, i8 0, i64 32, i1 false)
  %23 = load i32, ptr %3, align 4, !tbaa !13
  %24 = getelementptr inbounds nuw i8, ptr %0, i64 316
  store i32 %23, ptr %24, align 4, !tbaa !39
  %25 = getelementptr inbounds nuw i8, ptr %0, i64 200
  %26 = getelementptr inbounds nuw i8, ptr %0, i64 192
  store ptr %25, ptr %26, align 8, !tbaa !40
  %27 = getelementptr inbounds nuw i8, ptr %0, i64 320
  %28 = getelementptr inbounds nuw i8, ptr %0, i64 24
  %29 = getelementptr inbounds nuw i8, ptr %0, i64 312
  store i8 0, ptr %29, align 8, !tbaa !41
  tail call void @llvm.memset.p0.i64(ptr noundef nonnull align 8 dereferenceable(32) %28, i8 0, i64 32, i1 false)
  tail call void @llvm.memset.p0.i64(ptr noundef nonnull align 8 dereferenceable(16) %27, i8 0, i64 16, i1 false)
  %30 = load i32, ptr %3, align 4, !tbaa !13
  %31 = icmp slt i32 %30, 1
  br i1 %31, label %32, label %45

32:                                               ; preds = %4
  call void @llvm.lifetime.start.p0(i64 72, ptr nonnull %5) #21
  %33 = invoke noundef ptr @_ZN6icu_7712RegexPattern7compileEP5UTextjR11UParseErrorR10UErrorCode(ptr noundef %1, i32 noundef %2, ptr noundef nonnull align 4 dereferenceable(72) %5, ptr noundef nonnull align 4 dereferenceable(4) %3)
          to label %34 unwind label %38

34:                                               ; preds = %32
  %35 = getelementptr inbounds nuw i8, ptr %0, i64 16
  store ptr %33, ptr %35, align 8, !tbaa !75
  %36 = load i32, ptr %3, align 4, !tbaa !13
  %37 = icmp slt i32 %36, 1
  br i1 %37, label %40, label %44

38:                                               ; preds = %40, %32
  %39 = landingpad { ptr, i32 }
          cleanup
  call void @llvm.lifetime.end.p0(i64 72, ptr nonnull %5) #21
  call void @_ZN6icu_777UObjectD2Ev(ptr noundef nonnull align 8 dereferenceable(8) %0) #21
  resume { ptr, i32 } %39

40:                                               ; preds = %34
  store ptr %33, ptr %6, align 8, !tbaa !42
  %41 = load ptr, ptr @_ZN6icu_7715RegexStaticSets11gStaticSetsE, align 8, !tbaa !43
  %42 = getelementptr inbounds nuw i8, ptr %41, i64 3832
  %43 = load ptr, ptr %42, align 8, !tbaa !45
  invoke void @_ZN6icu_7712RegexMatcher5init2EP5UTextR10UErrorCode(ptr noundef nonnull align 8 dereferenceable(336) %0, ptr noundef %43, ptr noundef nonnull align 4 dereferenceable(4) %3)
          to label %44 unwind label %38

44:                                               ; preds = %40, %34
  call void @llvm.lifetime.end.p0(i64 72, ptr nonnull %5) #21
  br label %45

45:                                               ; preds = %4, %44
  ret void
}